target datalayout = "e-m:e-p270:32:32-p271:32:32-p272:64:64-i64:64-i128:128-f80:128-n8:16:32:64-S128"
target triple = "x86_64-pc-linux-gnu"

@.str.6 = private unnamed_addr constant [5 x i8] c"%dd+\00", align 1
@.str.7 = private unnamed_addr constant [6 x i8] c"%.2d:\00", align 1
@.str.8 = private unnamed_addr constant [5 x i8] c"%.2d\00", align 1

; Function Attrs: nounwind uwtable
define hidden i32 @cdf_print_elapsed_time(ptr noundef %0, i64 noundef %1, i64 noundef %2) #0 {
  %4 = alloca i32, align 4
  %5 = alloca ptr, align 8
  %6 = alloca i64, align 8
  %7 = alloca i64, align 8
  %8 = alloca i32, align 4
  %9 = alloca i32, align 4
  %10 = alloca i32, align 4
  %11 = alloca i32, align 4
  %12 = alloca i32, align 4
  %13 = alloca i32, align 4
  store ptr %0, ptr %5, align 8, !tbaa !9
  store i64 %1, ptr %6, align 8, !tbaa !14
  store i64 %2, ptr %7, align 8, !tbaa !14
  call void @llvm.lifetime.start.p0(i64 4, ptr %8) #13
  store i32 0, ptr %8, align 4, !tbaa !12
  call void @llvm.lifetime.start.p0(i64 4, ptr %9) #13
  call void @llvm.lifetime.start.p0(i64 4, ptr %10) #13
  call void @llvm.lifetime.start.p0(i64 4, ptr %11) #13
  call void @llvm.lifetime.start.p0(i64 4, ptr %12) #13
  %14 = load i64, ptr %7, align 8, !tbaa !14
  %15 = sdiv i64 %14, 10000000
  store i64 %15, ptr %7, align 8, !tbaa !14
  %16 = load i64, ptr %7, align 8, !tbaa !14
  %17 = srem i64 %16, 60
  %18 = trunc i64 %17 to i32
  store i32 %18, ptr %12, align 4, !tbaa !12
  %19 = load i64, ptr %7, align 8, !tbaa !14
  %20 = sdiv i64 %19, 60
  store i64 %20, ptr %7, align 8, !tbaa !14
  %21 = load i64, ptr %7, align 8, !tbaa !14
  %22 = srem i64 %21, 60
  %23 = trunc i64 %22 to i32
  store i32 %23, ptr %11, align 4, !tbaa !12
  %24 = load i64, ptr %7, align 8, !tbaa !14
  %25 = sdiv i64 %24, 60
  store i64 %25, ptr %7, align 8, !tbaa !14
  %26 = load i64, ptr %7, align 8, !tbaa !14
  %27 = srem i64 %26, 24
  %28 = trunc i64 %27 to i32
  store i32 %28, ptr %10, align 4, !tbaa !12
  %29 = load i64, ptr %7, align 8, !tbaa !14
  %30 = sdiv i64 %29, 24
  store i64 %30, ptr %7, align 8, !tbaa !14
  %31 = load i64, ptr %7, align 8, !tbaa !14
  %32 = trunc i64 %31 to i32
  store i32 %32, ptr %9, align 4, !tbaa !12
  %33 = load i32, ptr %9, align 4, !tbaa !12
  %34 = icmp ne i32 %33, 0
  br i1 %34, label %35, label %55

35:                                               ; preds = %3
  %36 = load ptr, ptr %5, align 8, !tbaa !9
  %37 = load i32, ptr %8, align 4, !tbaa !12
  %38 = sext i32 %37 to i64
  %39 = getelementptr inbounds i8, ptr %36, i64 %38
  %40 = load i64, ptr %6, align 8, !tbaa !14
  %41 = load i32, ptr %8, align 4, !tbaa !12
  %42 = sext i32 %41 to i64
  %43 = sub i64 %40, %42
  %44 = load i32, ptr %9, align 4, !tbaa !12
  %45 = call i32 (ptr, i64, ptr, ...) @ap_php_snprintf(ptr noundef %39, i64 noundef %43, ptr noundef @.str.6, i32 noundef %44)
  %46 = load i32, ptr %8, align 4, !tbaa !12
  %47 = add nsw i32 %46, %45
  store i32 %47, ptr %8, align 4, !tbaa !12
  %48 = load i32, ptr %8, align 4, !tbaa !12
  %49 = sext i32 %48 to i64
  %50 = load i64, ptr %6, align 8, !tbaa !14
  %51 = icmp uge i64 %49, %50
  br i1 %51, label %52, label %54

52:                                               ; preds = %35
  %53 = load i32, ptr %8, align 4, !tbaa !12
  store i32 %53, ptr %4, align 4
  store i32 1, ptr %13, align 4
  br label %114

54:                                               ; preds = %35
  br label %55

55:                                               ; preds = %54, %3
  %56 = load i32, ptr %9, align 4, !tbaa !12
  %57 = icmp ne i32 %56, 0
  br i1 %57, label %61, label %58

58:                                               ; preds = %55
  %59 = load i32, ptr %10, align 4, !tbaa !12
  %60 = icmp ne i32 %59, 0
  br i1 %60, label %61, label %81

61:                                               ; preds = %58, %55
  %62 = load ptr, ptr %5, align 8, !tbaa !9
  %63 = load i32, ptr %8, align 4, !tbaa !12
  %64 = sext i32 %63 to i64
  %65 = getelementptr inbounds i8, ptr %62, i64 %64
  %66 = load i64, ptr %6, align 8, !tbaa !14
  %67 = load i32, ptr %8, align 4, !tbaa !12
  %68 = sext i32 %67 to i64
  %69 = sub i64 %66, %68
  %70 = load i32, ptr %10, align 4, !tbaa !12
  %71 = call i32 (ptr, i64, ptr, ...) @ap_php_snprintf(ptr noundef %65, i64 noundef %69, ptr noundef @.str.7, i32 noundef %70)
  %72 = load i32, ptr %8, align 4, !tbaa !12
  %73 = add nsw i32 %72, %71
  store i32 %73, ptr %8, align 4, !tbaa !12
  %74 = load i32, ptr %8, align 4, !tbaa !12
  %75 = sext i32 %74 to i64
  %76 = load i64, ptr %6, align 8, !tbaa !14
  %77 = icmp uge i64 %75, %76
  br i1 %77, label %78, label %80

78:                                               ; preds = %61
  %79 = load i32, ptr %8, align 4, !tbaa !12
  store i32 %79, ptr %4, align 4
  store i32 1, ptr %13, align 4
  br label %114

80:                                               ; preds = %61
  br label %81

81:                                               ; preds = %80, %58
  %82 = load ptr, ptr %5, align 8, !tbaa !9
  %83 = load i32, ptr %8, align 4, !tbaa !12
  %84 = sext i32 %83 to i64
  %85 = getelementptr inbounds i8, ptr %82, i64 %84
  %86 = load i64, ptr %6, align 8, !tbaa !14
  %87 = load i32, ptr %8, align 4, !tbaa !12
  %88 = sext i32 %87 to i64
  %89 = sub i64 %86, %88
  %90 = load i32, ptr %11, align 4, !tbaa !12
  %91 = call i32 (ptr, i64, ptr, ...) @ap_php_snprintf(ptr noundef %85, i64 noundef %89, ptr noundef @.str.7, i32 noundef %90)
  %92 = load i32, ptr %8, align 4, !tbaa !12
  %93 = add nsw i32 %92, %91
  store i32 %93, ptr %8, align 4, !tbaa !12
  %94 = load i32, ptr %8, align 4, !tbaa !12
  %95 = sext i32 %94 to i64
  %96 = load i64, ptr %6, align 8, !tbaa !14
  %97 = icmp uge i64 %95, %96
  br i1 %97, label %98, label %100

98:                                               ; preds = %81
  %99 = load i32, ptr %8, align 4, !tbaa !12
  store i32 %99, ptr %4, align 4
  store i32 1, ptr %13, align 4
  br label %114

100:                                              ; preds = %81
  %101 = load ptr, ptr %5, align 8, !tbaa !9
  %102 = load i32, ptr %8, align 4, !tbaa !12
  %103 = sext i32 %102 to i64
  %104 = getelementptr inbounds i8, ptr %101, i64 %103
  %105 = load i64, ptr %6, align 8, !tbaa !14
  %106 = load i32, ptr %8, align 4, !tbaa !12
  %107 = sext i32 %106 to i64
  %108 = sub i64 %105, %107
  %109 = load i32, ptr %12, align 4, !tbaa !12
  %110 = call i32 (ptr, i64, ptr, ...) @ap_php_snprintf(ptr noundef %104, i64 noundef %108, ptr noundef @.str.8, i32 noundef %109)
  %111 = load i32, ptr %8, align 4, !tbaa !12
  %112 = add nsw i32 %111, %110
  store i32 %112, ptr %8, align 4, !tbaa !12
  %113 = load i32, ptr %8, align 4, !tbaa !12
  store i32 %113, ptr %4, align 4
  store i32 1, ptr %13, align 4
  br label %114

114:                                              ; preds = %100, %98, %78, %52
  call void @llvm.lifetime.end.p0(i64 4, ptr %12) #13
  call void @llvm.lifetime.end.p0(i64 4, ptr %11) #13
  call void @llvm.lifetime.end.p0(i64 4, ptr %10) #13
  call void @llvm.lifetime.end.p0(i64 4, ptr %9) #13
  call void @llvm.lifetime.end.p0(i64 4, ptr %8) #13
  %115 = load i32, ptr %4, align 4
  ret i32 %115
}