; Function Attrs: nounwind uwtable
define hidden i32 @cdf_print_elapsed_time(ptr noundef %0, i64 noundef %1, i64 noundef %2) local_unnamed_addr #7 {
  %4 = sdiv i64 %2, 10000000
  %5 = srem i64 %4, 60
  %6 = trunc nsw i64 %5 to i32
  %7 = sdiv i64 %2, 600000000
  %8 = srem i64 %7, 60
  %9 = trunc nsw i64 %8 to i32
  %10 = sdiv i64 %2, 36000000000
  %.lhs.trunc = trunc nsw i64 %10 to i32
  %11 = srem i32 %.lhs.trunc, 24
  %12 = add i64 %2, -864000000000
  %13 = icmp ult i64 %12, -1727999999999
  br i1 %13, label %14, label %19

14:                                               ; preds = %3
  %15 = sdiv i64 %2, 864000000000
  %16 = trunc nsw i64 %15 to i32
  %17 = tail call i32 (ptr, i64, ptr, ...) @ap_php_snprintf(ptr noundef %0, i64 noundef %1, ptr noundef nonnull @.str.6, i32 noundef %16) #21
  %18 = sext i32 %17 to i64
  %.not = icmp ugt i64 %1, %18
  br i1 %.not, label %.thread, label %37

19:                                               ; preds = %3
  %.not55 = icmp eq i32 %11, 0
  br i1 %.not55, label %._crit_edge, label %.thread

.thread:                                          ; preds = %19, %14
  %.04654 = phi i32 [ %17, %14 ], [ 0, %19 ]
  %20 = sext i32 %.04654 to i64
  %21 = getelementptr inbounds i8, ptr %0, i64 %20
  %22 = sub i64 %1, %20
  %23 = tail call i32 (ptr, i64, ptr, ...) @ap_php_snprintf(ptr noundef %21, i64 noundef %22, ptr noundef nonnull @.str.7, i32 noundef %11) #21
  %24 = add nsw i32 %23, %.04654
  %25 = sext i32 %24 to i64
  %.not50 = icmp ugt i64 %1, %25
  br i1 %.not50, label %._crit_edge, label %37

._crit_edge:                                      ; preds = %19, %.thread
  %.1 = phi i32 [ %24, %.thread ], [ 0, %19 ]
  %26 = sext i32 %.1 to i64
  %27 = getelementptr inbounds i8, ptr %0, i64 %26
  %28 = sub i64 %1, %26
  %29 = tail call i32 (ptr, i64, ptr, ...) @ap_php_snprintf(ptr noundef %27, i64 noundef %28, ptr noundef nonnull @.str.7, i32 noundef %9) #21
  %30 = add nsw i32 %29, %.1
  %31 = sext i32 %30 to i64
  %.not51 = icmp ugt i64 %1, %31
  br i1 %.not51, label %32, label %37

32:                                               ; preds = %._crit_edge
  %33 = getelementptr inbounds i8, ptr %0, i64 %31
  %34 = sub nuw i64 %1, %31
  %35 = tail call i32 (ptr, i64, ptr, ...) @ap_php_snprintf(ptr noundef %33, i64 noundef %34, ptr noundef nonnull @.str.8, i32 noundef %6) #21
  %36 = add nsw i32 %35, %30
  br label %37

37:                                               ; preds = %._crit_edge, %.thread, %14, %32
  %.0 = phi i32 [ %36, %32 ], [ %17, %14 ], [ %24, %.thread ], [ %30, %._crit_edge ]
  ret i32 %.0
}